Certificate:
    Data:
        Version: 3 (0x2)
        Serial Number:
            45:10:49:0f:62:e8:94:a3:2d:36:f9:04:f0:df:1a:58:b4:25:55:e7
        Signature Algorithm: sha1WithRSAEncryption
        Issuer: C=XX, ST=Elbonia, O=Example Corporation, CN=Example Certificate Authority
        Validity
            Not Before: Mar 10 14:06:41 2020 GMT
            Not After : Mar 10 14:06:41 2023 GMT
        Subject: C=XX, ST=Elbonia, O=Example Corp., CN=crypto2-sha1.example.com
        Subject Public Key Info:
            Public Key Algorithm: rsaEncryption
                RSA Public-Key: (3072 bit)
                Modulus:
                    00:d4:9e:8e:7e:a3:56:c4:9a:7f:87:a4:1f:2c:70:
                    8b:3d:8d:f3:7a:52:4a:fc:4e:00:c9:f0:ef:bf:b6:
                    94:41:fd:98:04:28:09:0e:9b:a7:84:7d:13:75:de:
                    1c:ab:0b:5b:4c:a5:1d:05:5d:e5:81:bc:07:c1:4e:
                    ca:92:4c:0d:88:5e:a6:b5:7f:2b:30:14:8b:fe:1c:
                    99:21:f2:20:14:81:6e:73:41:7c:94:7f:53:b9:8d:
                    2f:25:e2:5a:1a:41:09:8e:2e:44:5e:b4:23:4b:b2:
                    03:f9:e0:c5:4f:db:13:25:5a:ac:24:4c:b7:86:5a:
                    21:a0:6d:0d:89:02:34:8e:84:11:34:ac:20:68:99:
                    78:25:2c:fb:40:63:39:b1:0f:70:87:94:30:6f:5c:
                    b2:1e:94:20:57:38:cd:c4:14:1b:04:9f:0b:39:c4:
                    a3:e9:5e:73:7a:79:b7:fe:31:6e:54:80:7e:99:08:
                    a3:f0:90:21:1a:76:95:b5:72:ea:b5:bc:3c:fd:a8:
                    2c:84:c1:a1:a5:05:80:71:72:3f:25:09:ce:b0:f8:
                    9c:fe:cb:ec:64:b5:75:d9:2c:80:98:02:08:d4:18:
                    2c:bf:9c:50:25:67:18:66:bb:69:48:77:84:7c:cd:
                    21:de:4b:31:a3:ee:15:9b:63:da:43:c1:df:6e:8d:
                    d7:f9:93:e1:fb:d0:2a:e7:23:e6:76:95:29:8b:5b:
                    08:43:45:d9:ce:89:10:fd:e2:60:3f:80:2c:9c:cb:
                    4f:f5:5f:d0:52:b6:d8:fe:38:dc:36:ca:78:eb:3e:
                    21:91:8d:d0:78:85:2f:f6:c1:5e:44:97:f9:d8:0d:
                    9f:13:c3:b8:ef:c1:cb:1a:5e:da:c0:7d:6b:b5:b8:
                    34:a7:ce:2e:17:9d:96:9c:91:86:ac:81:68:a3:82:
                    27:5f:9b:a2:0b:dd:14:54:19:7d:46:9b:4e:86:68:
                    f5:a7:97:c4:da:bc:ff:b7:2f:e4:ed:20:b7:d8:49:
                    b5:96:a9:ee:76:06:8d:cc:03:65
                Exponent: 65537 (0x10001)
        X509v3 extensions:
            X509v3 Basic Constraints: 
                CA:FALSE
            Netscape Comment: 
                OpenSSL Generated Certificate
            X509v3 Subject Key Identifier: 
                7F:AE:B0:F8:B1:1B:67:3A:6D:69:A7:C9:D2:1A:10:E5:2B:9E:17:0C
            X509v3 Authority Key Identifier: 
                keyid:93:58:DE:B8:9C:19:A3:F5:87:1B:78:07:6B:A2:F6:83:90:2E:6F:DA

            X509v3 Subject Alternative Name: 
                DNS:crypto2-sha1.example.com
    Signature Algorithm: sha1WithRSAEncryption
         6e:bc:00:f6:64:43:6a:e4:db:30:bc:05:5c:4b:ab:5a:a5:cf:
         1c:54:00:08:b7:3a:11:7e:d9:42:5e:72:2c:be:68:4c:fc:e9:
         26:15:78:d1:4c:a1:53:19:6a:ca:29:db:67:75:86:58:60:b3:
         2b:0d:46:b4:b1:a4:cb:c1:2b:27:29:70:3f:3f:9d:ae:b3:b3:
         dc:22:20:a5:d3:a3:78:08:8b:2c:9a:63:22:57:3b:6a:05:b6:
         bb:3e:a4:f2:72:c8:54:50:23:eb:9c:4a:93:c1:d1:f4:ce:34:
         9b:19:36:ab:4a:fa:c8:76:2e:37:ec:3b:6a:28:01:65:d7:42:
         f1:6a:2b:91:2a:db:29:62:68:3d:ab:00:de:45:ac:c7:ca:9c:
         f8:e9:ea:98:6b:f4:77:ca:32:e4:8b:b6:31:32:91:51:4a:b9:
         8c:74:47:23:fd:65:9b:46:7f:95:8b:fc:c9:c6:77:69:ba:5e:
         56:3b:8e:9e:16:7e:7e:42:1a:6b:76:cb:b9:2c:54:c1:7f:cb:
         a1:6e:ce:34:d3:e0:45:f3:df:f6:7a:02:03:a8:8e:49:ad:aa:
         3b:e6:04:4f:a8:bd:20:ae:46:19:9f:3a:9b:ce:f0:f9:fe:5e:
         c4:90:7f:1c:4f:e1:64:fd:07:a6:33:a8:58:dd:bc:23:77:4c:
         18:a5:d0:2d:ac:b0:bd:0d:66:e2:07:39:af:ae:3c:ca:09:62:
         42:59:e1:a2:2c:d6:f6:c5:25:fa:d1:1f:81:f5:65:65:48:26:
         b9:b3:79:73:3b:4a:83:94:3f:9a:a2:68:77:af:56:d4:63:2c:
         6a:4c:a6:0f:d9:f5:13:5e:c7:27:7e:95:92:ab:77:7f:a6:f1:
         40:a6:28:80:52:0f:10:f5:38:78:df:d1:ca:f6:bf:57:01:cb:
         01:26:36:a5:56:9e:5e:eb:6d:12:6b:e4:f6:cf:94:87:b4:5c:
         9d:3c:2c:40:6c:44:92:d9:4d:9c:53:1e:3c:32:c9:30:90:d6:
         e8:be:c8:18:e0:d6
-----BEGIN CERTIFICATE-----
MIIE7zCCA1egAwIBAgIURRBJD2LolKMtNvkE8N8aWLQlVecwDQYJKoZIhvcNAQEF
BQAwZTELMAkGA1UEBhMCWFgxEDAOBgNVBAgMB0VsYm9uaWExHDAaBgNVBAoME0V4
YW1wbGUgQ29ycG9yYXRpb24xJjAkBgNVBAMMHUV4YW1wbGUgQ2VydGlmaWNhdGUg
QXV0aG9yaXR5MB4XDTIwMDMxMDE0MDY0MVoXDTIzMDMxMDE0MDY0MVowWjELMAkG
A1UEBhMCWFgxEDAOBgNVBAgMB0VsYm9uaWExFjAUBgNVBAoMDUV4YW1wbGUgQ29y
cC4xITAfBgNVBAMMGGNyeXB0bzItc2hhMS5leGFtcGxlLmNvbTCCAaIwDQYJKoZI
hvcNAQEBBQADggGPADCCAYoCggGBANSejn6jVsSaf4ekHyxwiz2N83pSSvxOAMnw
77+2lEH9mAQoCQ6bp4R9E3XeHKsLW0ylHQVd5YG8B8FOypJMDYheprV/KzAUi/4c
mSHyIBSBbnNBfJR/U7mNLyXiWhpBCY4uRF60I0uyA/ngxU/bEyVarCRMt4ZaIaBt
DYkCNI6EETSsIGiZeCUs+0BjObEPcIeUMG9csh6UIFc4zcQUGwSfCznEo+lec3p5
t/4xblSAfpkIo/CQIRp2lbVy6rW8PP2oLITBoaUFgHFyPyUJzrD4nP7L7GS1ddks
gJgCCNQYLL+cUCVnGGa7aUh3hHzNId5LMaPuFZtj2kPB326N1/mT4fvQKucj5naV
KYtbCENF2c6JEP3iYD+ALJzLT/Vf0FK22P443DbKeOs+IZGN0HiFL/bBXkSX+dgN
nxPDuO/Byxpe2sB9a7W4NKfOLhedlpyRhqyBaKOCJ1+bogvdFFQZfUabToZo9aeX
xNq8/7cv5O0gt9hJtZap7nYGjcwDZQIDAQABo4GhMIGeMAkGA1UdEwQCMAAwLAYJ
YIZIAYb4QgENBB8WHU9wZW5TU0wgR2VuZXJhdGVkIENlcnRpZmljYXRlMB0GA1Ud
DgQWBBR/rrD4sRtnOm1pp8nSGhDlK54XDDAfBgNVHSMEGDAWgBSTWN64nBmj9Ycb
eAdrovaDkC5v2jAjBgNVHREEHDAaghhjcnlwdG8yLXNoYTEuZXhhbXBsZS5jb20w
DQYJKoZIhvcNAQEFBQADggGBAG68APZkQ2rk2zC8BVxLq1qlzxxUAAi3OhF+2UJe
ciy+aEz86SYVeNFMoVMZasop22d1hlhgsysNRrSxpMvBKycpcD8/na6zs9wiIKXT
o3gIiyyaYyJXO2oFtrs+pPJyyFRQI+ucSpPB0fTONJsZNqtK+sh2LjfsO2ooAWXX
QvFqK5Eq2yliaD2rAN5FrMfKnPjp6phr9HfKMuSLtjEykVFKuYx0RyP9ZZtGf5WL
/MnGd2m6XlY7jp4Wfn5CGmt2y7ksVMF/y6FuzjTT4EXz3/Z6AgOojkmtqjvmBE+o
vSCuRhmfOpvO8Pn+XsSQfxxP4WT9B6YzqFjdvCN3TBil0C2ssL0NZuIHOa+uPMoJ
YkJZ4aIs1vbFJfrRH4H1ZWVIJrmzeXM7SoOUP5qiaHevVtRjLGpMpg/Z9RNexyd+
lZKrd3+m8UCmKIBSDxD1OHjf0cr2v1cBywEmNqVWnl7rbRJr5PbPlIe0XJ08LEBs
RJLZTZxTHjwyyTCQ1ui+yBjg1g==
-----END CERTIFICATE-----
