Certificate:
    Data:
        Version: 3 (0x2)
        Serial Number:
            45:10:49:0f:62:e8:94:a3:2d:36:f9:04:f0:df:1a:58:b4:25:55:e9
        Signature Algorithm: sha256WithRSAEncryption
        Issuer: C=XX, ST=Elbonia, O=Example Corporation, CN=Example Certificate Authority
        Validity
            Not Before: Mar 10 14:22:18 2020 GMT
            Not After : Mar 10 14:22:18 2023 GMT
        Subject: C=XX, ST=Elbonia, O=Example Corp., CN=crypto2-ed25519.example.com
        Subject Public Key Info:
            Public Key Algorithm: ED25519
                ED25519 Public-Key:
                pub:
                    5c:a2:44:50:42:e6:15:65:ca:c8:7e:7b:21:e8:70:
                    2f:7b:d5:d0:0d:68:cf:79:bd:10:f8:93:3a:5b:3c:
                    97:a4
        X509v3 extensions:
            X509v3 Basic Constraints: 
                CA:FALSE
            Netscape Comment: 
                OpenSSL Generated Certificate
            X509v3 Subject Key Identifier: 
                0C:01:F1:6E:F9:30:C9:30:BC:41:E4:44:C4:29:95:72:72:8E:6C:D4
            X509v3 Authority Key Identifier: 
                keyid:93:58:DE:B8:9C:19:A3:F5:87:1B:78:07:6B:A2:F6:83:90:2E:6F:DA

            X509v3 Subject Alternative Name: 
                DNS:crypto2-ed25519.example.com
    Signature Algorithm: sha256WithRSAEncryption
         77:95:b0:f1:e9:ca:ae:f4:63:a0:1d:bb:9e:3e:f3:66:21:5e:
         6f:6b:b2:ff:3b:1d:e1:84:00:5c:a8:d9:7f:e4:7a:1b:ac:11:
         b2:76:8e:b4:a5:bf:d2:24:3c:6f:f3:af:1a:e6:35:2b:4e:c5:
         73:14:c2:b5:05:83:85:20:82:7f:76:c8:55:7f:69:cb:fc:3d:
         8f:fe:0f:8f:8f:8f:f6:56:15:d0:13:c8:0d:b7:78:1c:3f:2f:
         aa:d8:98:39:8c:aa:13:fc:87:95:91:8e:02:ba:41:eb:6a:13:
         60:a7:fe:db:4b:81:c7:ad:b3:a7:11:00:ea:d3:cc:03:0f:49:
         e7:a3:da:ad:9c:d9:12:f6:70:f3:08:56:1c:c7:1e:6b:72:b1:
         d5:db:a9:92:56:19:35:b0:50:1e:19:2b:31:69:5b:50:a5:77:
         71:83:3f:8a:c0:fe:d4:31:72:fb:da:d2:ec:a5:81:63:b1:87:
         b1:92:62:6a:69:91:c7:17:c4:ee:9c:86:46:60:62:19:a7:9c:
         61:fa:60:95:61:f7:b3:f0:52:74:72:78:75:2d:f9:2f:94:de:
         10:fd:9d:fc:fc:5d:3e:a6:99:fc:57:d2:10:81:56:05:8b:53:
         f0:c3:0a:2c:d2:a7:1c:4b:61:00:d5:a6:01:5d:71:49:4d:2a:
         7f:90:c2:ae:c3:9c:54:fa:0d:60:cb:78:6d:af:ed:52:6e:5a:
         94:67:a2:6d:40:87:2a:62:76:2e:99:68:93:a6:88:ad:4c:ac:
         d8:6b:25:b8:56:2f:51:b1:77:e1:f6:75:10:39:7f:15:32:11:
         12:2a:e9:27:d5:a2:c8:f3:12:c9:23:bc:65:50:b3:53:62:94:
         c5:bd:5c:7c:e1:9d:ae:f2:65:9e:9a:cc:cd:06:54:22:81:77:
         4e:02:5d:2d:20:f0:77:7d:01:f0:ad:fc:7b:88:27:4d:4e:74:
         e4:04:5a:1c:c9:2a:2c:d5:e6:eb:f3:4c:cd:4e:bd:d1:70:8a:
         49:1a:6b:60:a3:df
-----BEGIN CERTIFICATE-----
MIIDezCCAeOgAwIBAgIURRBJD2LolKMtNvkE8N8aWLQlVekwDQYJKoZIhvcNAQEL
BQAwZTELMAkGA1UEBhMCWFgxEDAOBgNVBAgMB0VsYm9uaWExHDAaBgNVBAoME0V4
YW1wbGUgQ29ycG9yYXRpb24xJjAkBgNVBAMMHUV4YW1wbGUgQ2VydGlmaWNhdGUg
QXV0aG9yaXR5MB4XDTIwMDMxMDE0MjIxOFoXDTIzMDMxMDE0MjIxOFowXTELMAkG
A1UEBhMCWFgxEDAOBgNVBAgMB0VsYm9uaWExFjAUBgNVBAoMDUV4YW1wbGUgQ29y
cC4xJDAiBgNVBAMMG2NyeXB0bzItZWQyNTUxOS5leGFtcGxlLmNvbTAqMAUGAytl
cAMhAFyiRFBC5hVlysh+eyHocC971dANaM95vRD4kzpbPJeko4GkMIGhMAkGA1Ud
EwQCMAAwLAYJYIZIAYb4QgENBB8WHU9wZW5TU0wgR2VuZXJhdGVkIENlcnRpZmlj
YXRlMB0GA1UdDgQWBBQMAfFu+TDJMLxB5ETEKZVyco5s1DAfBgNVHSMEGDAWgBST
WN64nBmj9YcbeAdrovaDkC5v2jAmBgNVHREEHzAdghtjcnlwdG8yLWVkMjU1MTku
ZXhhbXBsZS5jb20wDQYJKoZIhvcNAQELBQADggGBAHeVsPHpyq70Y6Adu54+82Yh
Xm9rsv87HeGEAFyo2X/kehusEbJ2jrSlv9IkPG/zrxrmNStOxXMUwrUFg4Uggn92
yFV/acv8PY/+D4+Pj/ZWFdATyA23eBw/L6rYmDmMqhP8h5WRjgK6QetqE2Cn/ttL
gcets6cRAOrTzAMPSeej2q2c2RL2cPMIVhzHHmtysdXbqZJWGTWwUB4ZKzFpW1Cl
d3GDP4rA/tQxcvva0uylgWOxh7GSYmppkccXxO6chkZgYhmnnGH6YJVh97PwUnRy
eHUt+S+U3hD9nfz8XT6mmfxX0hCBVgWLU/DDCizSpxxLYQDVpgFdcUlNKn+Qwq7D
nFT6DWDLeG2v7VJuWpRnom1Ahypidi6ZaJOmiK1MrNhrJbhWL1Gxd+H2dRA5fxUy
ERIq6SfVosjzEskjvGVQs1NilMW9XHzhna7yZZ6azM0GVCKBd04CXS0g8Hd9AfCt
/HuIJ01OdOQEWhzJKizV5uvzTM1OvdFwikkaa2Cj3w==
-----END CERTIFICATE-----
