Certificate:
    Data:
        Version: 3 (0x2)
        Serial Number:
            45:10:49:0f:62:e8:94:a3:2d:36:f9:04:f0:df:1a:58:b4:25:55:e6
        Signature Algorithm: sha256WithRSAEncryption
        Issuer: C=XX, ST=Elbonia, O=Example Corporation, CN=Example Certificate Authority
        Validity
            Not Before: Mar 10 10:01:05 2020 GMT
            Not After : Mar 10 10:01:05 2023 GMT
        Subject: C=XX, ST=Elbonia, O=Example Corp., CN=crypto2-tls11.example.com
        Subject Public Key Info:
            Public Key Algorithm: rsaEncryption
                RSA Public-Key: (3072 bit)
                Modulus:
                    00:dd:f0:ea:5e:0d:6d:ec:e0:a0:ba:7e:1b:73:27:
                    e2:4a:23:b3:c7:e1:1c:cd:70:4c:2f:6a:9e:16:2c:
                    1e:53:6d:6b:4d:77:82:79:2e:bb:3c:c8:37:a0:3f:
                    67:39:e0:36:f2:83:c6:df:c3:ec:7d:d5:62:91:81:
                    7a:7d:59:6a:59:4d:de:fc:e4:19:9c:af:ec:27:27:
                    67:4f:79:80:e1:39:e7:d8:17:ff:6b:68:39:c7:8e:
                    6e:0a:3e:a0:75:bf:bc:71:6c:7a:0c:b8:eb:d7:2e:
                    92:40:96:b5:63:ed:cd:12:78:c1:19:ab:de:87:5d:
                    46:43:64:38:20:24:f4:e5:83:a8:cc:a2:00:98:14:
                    8a:31:4c:53:9a:4b:c8:55:f9:0c:98:ac:0d:d5:12:
                    41:fb:ad:82:7c:c5:73:f6:e5:e5:63:e8:fd:cd:16:
                    52:7b:10:0d:24:5c:d8:c4:f2:7d:91:8f:57:bf:53:
                    53:e2:22:c0:f0:08:93:e8:36:0f:d5:b9:9b:dd:6c:
                    67:d6:d9:53:71:80:6e:a2:7a:da:01:08:0c:76:ff:
                    2a:03:95:f9:16:b6:39:21:10:a6:e8:50:c3:38:bc:
                    7c:43:81:3f:5a:0d:da:d8:03:91:18:52:1e:f0:f7:
                    b9:7d:d3:f7:e7:4f:ad:d7:80:1c:47:c8:c7:44:8e:
                    02:3d:c9:45:a1:f6:12:07:0d:27:c5:f4:85:3c:6f:
                    20:d7:43:c5:cf:49:e1:68:67:dd:97:ec:91:ef:0b:
                    e1:2c:36:16:3e:95:f1:0b:95:be:97:37:8b:84:4e:
                    81:28:02:60:9b:1d:10:f8:5a:d4:ec:02:f9:3e:ff:
                    11:44:8f:df:29:c0:2a:5d:67:78:bb:cc:67:b8:8d:
                    9f:75:1f:22:a4:f7:7d:ec:0f:1b:42:20:64:03:f1:
                    b1:10:01:68:44:b4:4a:b9:38:b8:84:fd:2a:8e:70:
                    8a:f0:4b:06:5d:46:e7:2d:23:d5:29:be:32:e2:ba:
                    d4:5b:1b:c5:f2:3c:61:a3:f5:ab
                Exponent: 65537 (0x10001)
        X509v3 extensions:
            X509v3 Basic Constraints: 
                CA:FALSE
            Netscape Comment: 
                OpenSSL Generated Certificate
            X509v3 Subject Key Identifier: 
                D8:F5:21:B6:55:4B:49:1D:75:AE:5E:C5:AB:D3:B0:71:7B:57:E0:F1
            X509v3 Authority Key Identifier: 
                keyid:93:58:DE:B8:9C:19:A3:F5:87:1B:78:07:6B:A2:F6:83:90:2E:6F:DA

            X509v3 Subject Alternative Name: 
                DNS:crypto2-tls11.example.com
    Signature Algorithm: sha256WithRSAEncryption
         5e:92:3c:31:17:b0:94:6d:63:5d:93:a2:d3:45:86:ef:f1:f8:
         4e:c3:a5:7a:fb:a3:7b:cf:62:76:e5:dc:89:ae:9b:53:39:2b:
         5f:7e:bc:2a:49:13:c0:d1:4c:eb:67:8c:db:1c:7c:22:8e:14:
         6a:a5:11:30:92:08:8d:68:20:33:c5:48:a3:af:6c:55:aa:ea:
         2b:08:f4:2f:90:c2:99:9c:6e:f0:bf:d2:06:01:53:64:76:0f:
         0a:b8:0f:0e:0a:4e:79:4b:f4:23:b6:91:87:a3:6b:1a:b8:3d:
         c7:c1:6e:c4:6e:1c:ce:04:8b:fd:eb:f0:9d:3d:d1:91:fc:6c:
         bc:aa:e8:bb:96:d9:d1:e1:3d:0a:4a:ad:b3:1c:8f:9a:da:71:
         05:33:82:84:1d:06:47:61:e8:36:b7:80:02:9b:b6:86:34:f3:
         49:15:4b:b8:58:bf:ee:9d:fd:4a:d4:55:68:1c:0b:f0:b5:d0:
         b1:e7:db:ba:9f:5d:ec:a9:3a:30:2f:67:c5:3a:61:26:c2:85:
         78:9c:f5:72:49:ed:63:fc:71:68:0c:4f:7b:e9:11:a9:46:6a:
         63:17:b9:66:2c:46:19:c7:ff:d7:bb:76:4b:3e:7b:f8:4e:23:
         ec:19:64:5b:b1:a8:ca:34:a4:75:74:c8:20:d9:3e:1f:8d:84:
         8b:1e:ad:79:e7:ec:af:b0:fa:f7:ae:42:71:60:41:d9:50:f6:
         41:a9:12:e8:9d:01:7b:fd:0f:40:8a:c5:46:7d:cf:28:29:c9:
         fe:22:b6:2e:2a:53:d5:3d:33:4c:0a:13:de:c3:87:9d:76:f8:
         dc:4b:28:6e:a8:e6:4c:17:fd:04:94:10:f7:ed:46:1b:39:1b:
         69:47:84:ac:6b:a9:46:c7:ed:7b:2c:29:b7:cb:79:da:a3:ae:
         17:7b:eb:62:a0:3e:1d:2b:39:54:aa:f1:61:ba:2a:5f:4d:bd:
         93:f1:89:1e:ac:0c:66:70:ea:c4:9b:93:ad:f3:f2:36:f8:ce:
         47:21:b8:08:5f:28
-----BEGIN CERTIFICATE-----
MIIE8TCCA1mgAwIBAgIURRBJD2LolKMtNvkE8N8aWLQlVeYwDQYJKoZIhvcNAQEL
BQAwZTELMAkGA1UEBhMCWFgxEDAOBgNVBAgMB0VsYm9uaWExHDAaBgNVBAoME0V4
YW1wbGUgQ29ycG9yYXRpb24xJjAkBgNVBAMMHUV4YW1wbGUgQ2VydGlmaWNhdGUg
QXV0aG9yaXR5MB4XDTIwMDMxMDEwMDEwNVoXDTIzMDMxMDEwMDEwNVowWzELMAkG
A1UEBhMCWFgxEDAOBgNVBAgMB0VsYm9uaWExFjAUBgNVBAoMDUV4YW1wbGUgQ29y
cC4xIjAgBgNVBAMMGWNyeXB0bzItdGxzMTEuZXhhbXBsZS5jb20wggGiMA0GCSqG
SIb3DQEBAQUAA4IBjwAwggGKAoIBgQDd8OpeDW3s4KC6fhtzJ+JKI7PH4RzNcEwv
ap4WLB5TbWtNd4J5Lrs8yDegP2c54Dbyg8bfw+x91WKRgXp9WWpZTd785Bmcr+wn
J2dPeYDhOefYF/9raDnHjm4KPqB1v7xxbHoMuOvXLpJAlrVj7c0SeMEZq96HXUZD
ZDggJPTlg6jMogCYFIoxTFOaS8hV+QyYrA3VEkH7rYJ8xXP25eVj6P3NFlJ7EA0k
XNjE8n2Rj1e/U1PiIsDwCJPoNg/VuZvdbGfW2VNxgG6ietoBCAx2/yoDlfkWtjkh
EKboUMM4vHxDgT9aDdrYA5EYUh7w97l90/fnT63XgBxHyMdEjgI9yUWh9hIHDSfF
9IU8byDXQ8XPSeFoZ92X7JHvC+EsNhY+lfELlb6XN4uEToEoAmCbHRD4WtTsAvk+
/xFEj98pwCpdZ3i7zGe4jZ91HyKk933sDxtCIGQD8bEQAWhEtEq5OLiE/SqOcIrw
SwZdRuctI9UpvjLiutRbG8XyPGGj9asCAwEAAaOBojCBnzAJBgNVHRMEAjAAMCwG
CWCGSAGG+EIBDQQfFh1PcGVuU1NMIEdlbmVyYXRlZCBDZXJ0aWZpY2F0ZTAdBgNV
HQ4EFgQU2PUhtlVLSR11rl7Fq9OwcXtX4PEwHwYDVR0jBBgwFoAUk1jeuJwZo/WH
G3gHa6L2g5Aub9owJAYDVR0RBB0wG4IZY3J5cHRvMi10bHMxMS5leGFtcGxlLmNv
bTANBgkqhkiG9w0BAQsFAAOCAYEAXpI8MRewlG1jXZOi00WG7/H4TsOlevuje89i
duXcia6bUzkrX368KkkTwNFM62eM2xx8Io4UaqURMJIIjWggM8VIo69sVarqKwj0
L5DCmZxu8L/SBgFTZHYPCrgPDgpOeUv0I7aRh6NrGrg9x8FuxG4czgSL/evwnT3R
kfxsvKrou5bZ0eE9CkqtsxyPmtpxBTOChB0GR2HoNreAApu2hjTzSRVLuFi/7p39
StRVaBwL8LXQsefbup9d7Kk6MC9nxTphJsKFeJz1ckntY/xxaAxPe+kRqUZqYxe5
ZixGGcf/17t2Sz57+E4j7BlkW7GoyjSkdXTIINk+H42Eix6teefsr7D6965CcWBB
2VD2QakS6J0Be/0PQIrFRn3PKCnJ/iK2LipT1T0zTAoT3sOHnXb43EsobqjmTBf9
BJQQ9+1GGzkbaUeErGupRsfteywpt8t52qOuF3vrYqA+HSs5VKrxYboqX029k/GJ
HqwMZnDqxJuTrfPyNvjORyG4CF8o
-----END CERTIFICATE-----
