Certificate:
    Data:
        Version: 3 (0x2)
        Serial Number:
            45:10:49:0f:62:e8:94:a3:2d:36:f9:04:f0:df:1a:58:b4:25:55:e4
        Signature Algorithm: sha256WithRSAEncryption
        Issuer: C=XX, ST=Elbonia, O=Example Corporation, CN=Example Certificate Authority
        Validity
            Not Before: Mar 10 09:12:16 2020 GMT
            Not After : Mar 10 09:12:16 2023 GMT
        Subject: C=XX, ST=Elbonia, O=Example Corporation, CN=Example Certificate Authority
        Subject Public Key Info:
            Public Key Algorithm: rsaEncryption
                RSA Public-Key: (3072 bit)
                Modulus:
                    00:a4:0c:67:61:55:f8:2f:a0:eb:65:be:93:7d:4d:
                    80:5d:0a:f0:da:bc:2f:f4:6b:6f:7c:a4:e1:17:ae:
                    df:98:2b:15:e9:cd:e7:67:e9:e0:d6:b3:f7:c0:08:
                    da:02:b1:75:d0:7d:86:66:27:92:64:95:46:b6:ae:
                    ab:82:af:0a:66:ae:72:59:4d:d7:39:f1:c9:43:ef:
                    9d:fd:f0:e2:2e:98:79:11:5a:48:37:e5:58:75:c5:
                    94:13:0b:7b:b2:d5:94:c6:d8:9d:6f:56:f0:60:5c:
                    fd:cd:e5:ad:59:8f:de:42:c7:e6:9e:ba:62:ee:9b:
                    30:02:f2:df:22:92:ff:1a:f5:97:a4:3e:2d:51:da:
                    c5:8b:83:fa:e4:00:23:b8:bf:af:cf:11:eb:2b:f1:
                    25:88:84:35:7c:12:92:6e:de:08:6b:14:2f:28:64:
                    8c:ef:0d:18:95:2f:1e:6a:8b:7f:a2:c8:e1:57:e7:
                    3c:6d:e4:68:70:3b:7c:3e:c8:08:aa:df:9e:15:55:
                    6e:5c:e8:6e:ba:62:38:b6:26:10:84:23:30:a3:52:
                    ab:96:eb:62:17:e9:23:e0:b0:50:5b:59:42:51:26:
                    3f:38:59:2c:ab:97:3c:bb:50:b7:72:5a:dc:ce:59:
                    3c:a1:7b:aa:73:fb:37:17:f4:4e:6c:7c:cf:fa:55:
                    f3:49:f3:1c:ad:8a:15:e1:2c:27:d8:76:f1:7e:8b:
                    03:9e:a7:46:02:96:8a:3e:e7:c1:55:7e:89:fd:37:
                    04:2c:58:3f:34:0c:fc:b4:a4:b6:da:90:06:11:1d:
                    7e:bb:48:4e:09:bc:41:51:bc:80:bd:30:cd:d4:aa:
                    d3:6c:8f:d5:91:f7:82:87:b8:38:dc:65:df:9a:28:
                    8b:5e:3f:8a:58:70:81:21:b8:9d:02:4e:1d:e9:c0:
                    eb:01:55:c2:35:5d:e3:76:79:ed:bf:29:e8:be:ef:
                    bd:4b:19:42:45:eb:41:13:5e:d0:bc:dc:9e:06:5c:
                    93:a1:9b:f0:58:e3:ed:a8:24:3b
                Exponent: 65537 (0x10001)
        X509v3 extensions:
            X509v3 Subject Key Identifier: 
                93:58:DE:B8:9C:19:A3:F5:87:1B:78:07:6B:A2:F6:83:90:2E:6F:DA
            X509v3 Authority Key Identifier: 
                keyid:93:58:DE:B8:9C:19:A3:F5:87:1B:78:07:6B:A2:F6:83:90:2E:6F:DA

            X509v3 Basic Constraints: critical
                CA:TRUE
    Signature Algorithm: sha256WithRSAEncryption
         5f:c8:e1:ef:09:88:d2:ea:8c:d8:2b:97:fb:0c:6b:92:4c:25:
         e5:0b:78:43:d6:8a:85:60:4d:04:66:74:b9:99:11:6c:92:59:
         32:90:1f:8b:ec:4c:70:7f:6e:af:79:1b:60:f6:ab:c9:42:45:
         30:ab:a6:b6:f8:91:14:fc:22:70:d8:88:ae:2e:eb:5d:46:a2:
         53:5a:1a:9d:59:bf:1c:64:5d:43:0c:34:1f:94:54:79:ea:e3:
         9b:03:4b:dd:bf:fb:c8:a5:a1:de:95:4d:42:4c:87:5a:8c:aa:
         53:61:f8:20:38:ce:a8:93:4e:90:bd:98:cb:e0:7b:9e:b0:cb:
         5c:4a:6e:46:14:6e:af:c8:41:48:7a:fe:1c:7f:d6:37:0b:6c:
         e3:cc:4f:e9:c3:85:8d:bc:98:99:1c:78:72:c6:9f:9e:34:1e:
         1b:33:95:61:23:ef:89:4a:1a:46:06:4d:7b:5c:2f:0c:ea:8c:
         eb:e1:85:8b:bf:fe:29:ad:a1:8f:d3:08:cb:20:36:8d:7b:96:
         7a:97:99:7a:8f:5f:9f:90:6b:9a:4b:eb:1c:47:5e:5b:70:91:
         84:6a:88:5f:3f:66:c8:98:f3:d1:7b:01:ec:98:ac:8b:96:1c:
         ab:df:e0:6d:f6:59:fe:ed:37:f7:0f:1f:a2:7a:1d:56:57:9b:
         d1:01:e7:94:bd:01:eb:ac:87:16:42:e8:b1:c9:9e:66:1d:ae:
         18:66:75:67:ba:9d:c7:4b:ff:5f:77:fa:f0:88:64:46:a7:e5:
         6c:ad:aa:cc:37:6d:55:5d:7d:85:eb:72:ef:47:44:38:12:cf:
         fe:15:0c:92:e7:e0:ec:95:3c:aa:a9:26:e8:84:1a:69:fc:52:
         f3:01:46:a6:04:eb:aa:35:c0:a9:25:76:7c:ce:e2:49:d3:78:
         57:0f:87:7c:23:05:15:7f:52:14:95:90:38:58:10:d8:3e:cc:
         16:34:74:77:d0:77:7f:73:42:8b:fe:8d:16:21:fd:a6:da:38:
         97:a9:c6:07:a3:d4
-----BEGIN CERTIFICATE-----
MIIEqzCCAxOgAwIBAgIURRBJD2LolKMtNvkE8N8aWLQlVeQwDQYJKoZIhvcNAQEL
BQAwZTELMAkGA1UEBhMCWFgxEDAOBgNVBAgMB0VsYm9uaWExHDAaBgNVBAoME0V4
YW1wbGUgQ29ycG9yYXRpb24xJjAkBgNVBAMMHUV4YW1wbGUgQ2VydGlmaWNhdGUg
QXV0aG9yaXR5MB4XDTIwMDMxMDA5MTIxNloXDTIzMDMxMDA5MTIxNlowZTELMAkG
A1UEBhMCWFgxEDAOBgNVBAgMB0VsYm9uaWExHDAaBgNVBAoME0V4YW1wbGUgQ29y
cG9yYXRpb24xJjAkBgNVBAMMHUV4YW1wbGUgQ2VydGlmaWNhdGUgQXV0aG9yaXR5
MIIBojANBgkqhkiG9w0BAQEFAAOCAY8AMIIBigKCAYEApAxnYVX4L6DrZb6TfU2A
XQrw2rwv9GtvfKThF67fmCsV6c3nZ+ng1rP3wAjaArF10H2GZieSZJVGtq6rgq8K
Zq5yWU3XOfHJQ++d/fDiLph5EVpIN+VYdcWUEwt7stWUxtidb1bwYFz9zeWtWY/e
Qsfmnrpi7pswAvLfIpL/GvWXpD4tUdrFi4P65AAjuL+vzxHrK/EliIQ1fBKSbt4I
axQvKGSM7w0YlS8eaot/osjhV+c8beRocDt8PsgIqt+eFVVuXOhuumI4tiYQhCMw
o1KrlutiF+kj4LBQW1lCUSY/OFksq5c8u1C3clrczlk8oXuqc/s3F/RObHzP+lXz
SfMcrYoV4Swn2HbxfosDnqdGApaKPufBVX6J/TcELFg/NAz8tKS22pAGER1+u0hO
CbxBUbyAvTDN1KrTbI/VkfeCh7g43GXfmiiLXj+KWHCBIbidAk4d6cDrAVXCNV3j
dnntvynovu+9SxlCRetBE17QvNyeBlyToZvwWOPtqCQ7AgMBAAGjUzBRMB0GA1Ud
DgQWBBSTWN64nBmj9YcbeAdrovaDkC5v2jAfBgNVHSMEGDAWgBSTWN64nBmj9Ycb
eAdrovaDkC5v2jAPBgNVHRMBAf8EBTADAQH/MA0GCSqGSIb3DQEBCwUAA4IBgQBf
yOHvCYjS6ozYK5f7DGuSTCXlC3hD1oqFYE0EZnS5mRFsklkykB+L7Exwf26veRtg
9qvJQkUwq6a2+JEU/CJw2IiuLutdRqJTWhqdWb8cZF1DDDQflFR56uObA0vdv/vI
paHelU1CTIdajKpTYfggOM6ok06QvZjL4HuesMtcSm5GFG6vyEFIev4cf9Y3C2zj
zE/pw4WNvJiZHHhyxp+eNB4bM5VhI++JShpGBk17XC8M6ozr4YWLv/4praGP0wjL
IDaNe5Z6l5l6j1+fkGuaS+scR15bcJGEaohfP2bImPPRewHsmKyLlhyr3+Bt9ln+
7Tf3Dx+ieh1WV5vRAeeUvQHrrIcWQuixyZ5mHa4YZnVnup3HS/9fd/rwiGRGp+Vs
rarMN21VXX2F63LvR0Q4Es/+FQyS5+DslTyqqSbohBpp/FLzAUamBOuqNcCpJXZ8
zuJJ03hXD4d8IwUVf1IUlZA4WBDYPswWNHR30Hd/c0KL/o0WIf2m2jiXqcYHo9Q=
-----END CERTIFICATE-----
